target datalayout = "e-m:e-p270:32:32-p271:32:32-p272:64:64-i64:64-i128:128-f80:128-n8:16:32:64-S128"
target triple = "x86_64-pc-linux-gnu"

%struct._zend_ssa = type { %struct._zend_cfg, i32, i32, ptr, ptr, ptr, ptr }
%struct._zend_cfg = type { i32, i32, ptr, ptr, ptr, i32 }
%struct._zend_ssa_range = type { i64, i64, i8, i8 }
%struct._zend_ssa_var_info = type { i32, i8, %struct._zend_ssa_range, ptr }

; Function Attrs: nounwind uwtable
define internal i32 @binary_op_result_type(ptr noundef %0, i8 noundef zeroext %1, i32 noundef %2, i32 noundef %3, i32 noundef %4, i64 noundef %5) #0 {
  %7 = alloca ptr, align 8
  %8 = alloca i8, align 1
  %9 = alloca i32, align 4
  %10 = alloca i32, align 4
  %11 = alloca i32, align 4
  %12 = alloca i64, align 8
  %13 = alloca i32, align 4
  %14 = alloca i32, align 4
  %15 = alloca i32, align 4
  store ptr %0, ptr %7, align 8
  store i8 %1, ptr %8, align 1
  store i32 %2, ptr %9, align 4
  store i32 %3, ptr %10, align 4
  store i32 %4, ptr %11, align 4
  store i64 %5, ptr %12, align 8
  store i32 0, ptr %13, align 4
  %16 = load i32, ptr %9, align 4
  %17 = and i32 %16, 1022
  %18 = load i32, ptr %9, align 4
  %19 = and i32 %18, 1
  %20 = icmp ne i32 %19, 0
  %21 = select i1 %20, i32 2, i32 0
  %22 = or i32 %17, %21
  store i32 %22, ptr %14, align 4
  %23 = load i32, ptr %10, align 4
  %24 = and i32 %23, 1022
  %25 = load i32, ptr %10, align 4
  %26 = and i32 %25, 1
  %27 = icmp ne i32 %26, 0
  %28 = select i1 %27, i32 2, i32 0
  %29 = or i32 %24, %28
  store i32 %29, ptr %15, align 4
  %30 = load i64, ptr %12, align 8
  %31 = and i64 65536, %30
  %32 = icmp ne i64 %31, 0
  br i1 %32, label %45, label %33

33:                                               ; preds = %6
  %34 = load i32, ptr %14, align 4
  %35 = and i32 %34, 256
  %36 = icmp ne i32 %35, 0
  br i1 %36, label %41, label %37

37:                                               ; preds = %33
  %38 = load i32, ptr %15, align 4
  %39 = and i32 %38, 256
  %40 = icmp ne i32 %39, 0
  br i1 %40, label %41, label %44

41:                                               ; preds = %37, %33
  %42 = load i32, ptr %13, align 4
  %43 = or i32 %42, 1073742084
  store i32 %43, ptr %13, align 4
  br label %44

44:                                               ; preds = %41, %37
  br label %45

45:                                               ; preds = %44, %6
  %46 = load i8, ptr %8, align 1
  %47 = zext i8 %46 to i32
  switch i32 %47, label %254 [
    i32 1, label %48
    i32 2, label %148
    i32 3, label %148
    i32 4, label %211
    i32 12, label %211
    i32 5, label %224
    i32 9, label %227
    i32 10, label %227
    i32 11, label %227
    i32 6, label %250
    i32 7, label %250
    i32 8, label %253
    i32 53, label %253
  ]

48:                                               ; preds = %45
  %49 = load i32, ptr %14, align 4
  %50 = icmp eq i32 %49, 16
  br i1 %50, label %51, label %97

51:                                               ; preds = %48
  %52 = load i32, ptr %15, align 4
  %53 = icmp eq i32 %52, 16
  br i1 %53, label %54, label %97

54:                                               ; preds = %51
  %55 = load i32, ptr %11, align 4
  %56 = icmp slt i32 %55, 0
  br i1 %56, label %90, label %57

57:                                               ; preds = %54
  %58 = load ptr, ptr %7, align 8
  %59 = getelementptr inbounds %struct._zend_ssa, ptr %58, i32 0, i32 6
  %60 = load ptr, ptr %59, align 8
  %61 = load i32, ptr %11, align 4
  %62 = sext i32 %61 to i64
  %63 = getelementptr inbounds %struct._zend_ssa_var_info, ptr %60, i64 %62
  %64 = getelementptr inbounds %struct._zend_ssa_var_info, ptr %63, i32 0, i32 1
  %65 = load i8, ptr %64, align 4
  %66 = and i8 %65, 1
  %67 = trunc i8 %66 to i1
  br i1 %67, label %68, label %90

68:                                               ; preds = %57
  %69 = load ptr, ptr %7, align 8
  %70 = getelementptr inbounds %struct._zend_ssa, ptr %69, i32 0, i32 6
  %71 = load ptr, ptr %70, align 8
  %72 = load i32, ptr %11, align 4
  %73 = sext i32 %72 to i64
  %74 = getelementptr inbounds %struct._zend_ssa_var_info, ptr %71, i64 %73
  %75 = getelementptr inbounds %struct._zend_ssa_var_info, ptr %74, i32 0, i32 2
  %76 = getelementptr inbounds %struct._zend_ssa_range, ptr %75, i32 0, i32 2
  %77 = load i8, ptr %76, align 8
  %78 = trunc i8 %77 to i1
  br i1 %78, label %90, label %79

79:                                               ; preds = %68
  %80 = load ptr, ptr %7, align 8
  %81 = getelementptr inbounds %struct._zend_ssa, ptr %80, i32 0, i32 6
  %82 = load ptr, ptr %81, align 8
  %83 = load i32, ptr %11, align 4
  %84 = sext i32 %83 to i64
  %85 = getelementptr inbounds %struct._zend_ssa_var_info, ptr %82, i64 %84
  %86 = getelementptr inbounds %struct._zend_ssa_var_info, ptr %85, i32 0, i32 2
  %87 = getelementptr inbounds %struct._zend_ssa_range, ptr %86, i32 0, i32 3
  %88 = load i8, ptr %87, align 1
  %89 = trunc i8 %88 to i1
  br i1 %89, label %90, label %93

90:                                               ; preds = %79, %68, %57, %54
  %91 = load i32, ptr %13, align 4
  %92 = or i32 %91, 48
  store i32 %92, ptr %13, align 4
  br label %96

93:                                               ; preds = %79
  %94 = load i32, ptr %13, align 4
  %95 = or i32 %94, 16
  store i32 %95, ptr %13, align 4
  br label %96

96:                                               ; preds = %93, %90
  br label %147

97:                                               ; preds = %51, %48
  %98 = load i32, ptr %14, align 4
  %99 = icmp eq i32 %98, 32
  br i1 %99, label %103, label %100

100:                                              ; preds = %97
  %101 = load i32, ptr %15, align 4
  %102 = icmp eq i32 %101, 32
  br i1 %102, label %103, label %106

103:                                              ; preds = %100, %97
  %104 = load i32, ptr %13, align 4
  %105 = or i32 %104, 32
  store i32 %105, ptr %13, align 4
  br label %146

106:                                              ; preds = %100
  %107 = load i32, ptr %14, align 4
  %108 = icmp eq i32 %107, 128
  br i1 %108, label %109, label %123

109:                                              ; preds = %106
  %110 = load i32, ptr %15, align 4
  %111 = icmp eq i32 %110, 128
  br i1 %111, label %112, label %123

112:                                              ; preds = %109
  %113 = load i32, ptr %13, align 4
  %114 = or i32 %113, 1073741952
  store i32 %114, ptr %13, align 4
  %115 = load i32, ptr %9, align 4
  %116 = and i32 %115, 553646080
  %117 = load i32, ptr %13, align 4
  %118 = or i32 %117, %116
  store i32 %118, ptr %13, align 4
  %119 = load i32, ptr %10, align 4
  %120 = and i32 %119, 553646080
  %121 = load i32, ptr %13, align 4
  %122 = or i32 %121, %120
  store i32 %122, ptr %13, align 4
  br label %145

123:                                              ; preds = %109, %106
  %124 = load i32, ptr %13, align 4
  %125 = or i32 %124, 48
  store i32 %125, ptr %13, align 4
  %126 = load i32, ptr %14, align 4
  %127 = and i32 %126, 128
  %128 = icmp ne i32 %127, 0
  br i1 %128, label %129, label %144

129:                                              ; preds = %123
  %130 = load i32, ptr %15, align 4
  %131 = and i32 %130, 128
  %132 = icmp ne i32 %131, 0
  br i1 %132, label %133, label %144

133:                                              ; preds = %129
  %134 = load i32, ptr %13, align 4
  %135 = or i32 %134, 1073741952
  store i32 %135, ptr %13, align 4
  %136 = load i32, ptr %9, align 4
  %137 = and i32 %136, 553646080
  %138 = load i32, ptr %13, align 4
  %139 = or i32 %138, %137
  store i32 %139, ptr %13, align 4
  %140 = load i32, ptr %10, align 4
  %141 = and i32 %140, 553646080
  %142 = load i32, ptr %13, align 4
  %143 = or i32 %142, %141
  store i32 %143, ptr %13, align 4
  br label %144

144:                                              ; preds = %133, %129, %123
  br label %145

145:                                              ; preds = %144, %112
  br label %146

146:                                              ; preds = %145, %103
  br label %147

147:                                              ; preds = %146, %96
  br label %255

148:                                              ; preds = %45, %45
  %149 = load i32, ptr %14, align 4
  %150 = icmp eq i32 %149, 16
  br i1 %150, label %151, label %197

151:                                              ; preds = %148
  %152 = load i32, ptr %15, align 4
  %153 = icmp eq i32 %152, 16
  br i1 %153, label %154, label %197

154:                                              ; preds = %151
  %155 = load i32, ptr %11, align 4
  %156 = icmp slt i32 %155, 0
  br i1 %156, label %190, label %157

157:                                              ; preds = %154
  %158 = load ptr, ptr %7, align 8
  %159 = getelementptr inbounds %struct._zend_ssa, ptr %158, i32 0, i32 6
  %160 = load ptr, ptr %159, align 8
  %161 = load i32, ptr %11, align 4
  %162 = sext i32 %161 to i64
  %163 = getelementptr inbounds %struct._zend_ssa_var_info, ptr %160, i64 %162
  %164 = getelementptr inbounds %struct._zend_ssa_var_info, ptr %163, i32 0, i32 1
  %165 = load i8, ptr %164, align 4
  %166 = and i8 %165, 1
  %167 = trunc i8 %166 to i1
  br i1 %167, label %168, label %190

168:                                              ; preds = %157
  %169 = load ptr, ptr %7, align 8
  %170 = getelementptr inbounds %struct._zend_ssa, ptr %169, i32 0, i32 6
  %171 = load ptr, ptr %170, align 8
  %172 = load i32, ptr %11, align 4
  %173 = sext i32 %172 to i64
  %174 = getelementptr inbounds %struct._zend_ssa_var_info, ptr %171, i64 %173
  %175 = getelementptr inbounds %struct._zend_ssa_var_info, ptr %174, i32 0, i32 2
  %176 = getelementptr inbounds %struct._zend_ssa_range, ptr %175, i32 0, i32 2
  %177 = load i8, ptr %176, align 8
  %178 = trunc i8 %177 to i1
  br i1 %178, label %190, label %179

179:                                              ; preds = %168
  %180 = load ptr, ptr %7, align 8
  %181 = getelementptr inbounds %struct._zend_ssa, ptr %180, i32 0, i32 6
  %182 = load ptr, ptr %181, align 8
  %183 = load i32, ptr %11, align 4
  %184 = sext i32 %183 to i64
  %185 = getelementptr inbounds %struct._zend_ssa_var_info, ptr %182, i64 %184
  %186 = getelementptr inbounds %struct._zend_ssa_var_info, ptr %185, i32 0, i32 2
  %187 = getelementptr inbounds %struct._zend_ssa_range, ptr %186, i32 0, i32 3
  %188 = load i8, ptr %187, align 1
  %189 = trunc i8 %188 to i1
  br i1 %189, label %190, label %193

190:                                              ; preds = %179, %168, %157, %154
  %191 = load i32, ptr %13, align 4
  %192 = or i32 %191, 48
  store i32 %192, ptr %13, align 4
  br label %196

193:                                              ; preds = %179
  %194 = load i32, ptr %13, align 4
  %195 = or i32 %194, 16
  store i32 %195, ptr %13, align 4
  br label %196

196:                                              ; preds = %193, %190
  br label %210

197:                                              ; preds = %151, %148
  %198 = load i32, ptr %14, align 4
  %199 = icmp eq i32 %198, 32
  br i1 %199, label %203, label %200

200:                                              ; preds = %197
  %201 = load i32, ptr %15, align 4
  %202 = icmp eq i32 %201, 32
  br i1 %202, label %203, label %206

203:                                              ; preds = %200, %197
  %204 = load i32, ptr %13, align 4
  %205 = or i32 %204, 32
  store i32 %205, ptr %13, align 4
  br label %209

206:                                              ; preds = %200
  %207 = load i32, ptr %13, align 4
  %208 = or i32 %207, 48
  store i32 %208, ptr %13, align 4
  br label %209

209:                                              ; preds = %206, %203
  br label %210

210:                                              ; preds = %209, %196
  br label %255

211:                                              ; preds = %45, %45
  %212 = load i32, ptr %14, align 4
  %213 = icmp eq i32 %212, 32
  br i1 %213, label %217, label %214

214:                                              ; preds = %211
  %215 = load i32, ptr %15, align 4
  %216 = icmp eq i32 %215, 32
  br i1 %216, label %217, label %220

217:                                              ; preds = %214, %211
  %218 = load i32, ptr %13, align 4
  %219 = or i32 %218, 32
  store i32 %219, ptr %13, align 4
  br label %223

220:                                              ; preds = %214
  %221 = load i32, ptr %13, align 4
  %222 = or i32 %221, 48
  store i32 %222, ptr %13, align 4
  br label %223

223:                                              ; preds = %220, %217
  br label %255

224:                                              ; preds = %45
  %225 = load i32, ptr %13, align 4
  %226 = or i32 %225, 16
  store i32 %226, ptr %13, align 4
  br label %255

227:                                              ; preds = %45, %45, %45
  %228 = load i32, ptr %14, align 4
  %229 = and i32 %228, 64
  %230 = icmp ne i32 %229, 0
  br i1 %230, label %231, label %238

231:                                              ; preds = %227
  %232 = load i32, ptr %15, align 4
  %233 = and i32 %232, 64
  %234 = icmp ne i32 %233, 0
  br i1 %234, label %235, label %238

235:                                              ; preds = %231
  %236 = load i32, ptr %13, align 4
  %237 = or i32 %236, -1073741760
  store i32 %237, ptr %13, align 4
  br label %238

238:                                              ; preds = %235, %231, %227
  %239 = load i32, ptr %14, align 4
  %240 = and i32 %239, -65
  %241 = icmp ne i32 %240, 0
  br i1 %241, label %246, label %242

242:                                              ; preds = %238
  %243 = load i32, ptr %15, align 4
  %244 = and i32 %243, -65
  %245 = icmp ne i32 %244, 0
  br i1 %245, label %246, label %249

246:                                              ; preds = %242, %238
  %247 = load i32, ptr %13, align 4
  %248 = or i32 %247, 16
  store i32 %248, ptr %13, align 4
  br label %249

249:                                              ; preds = %246, %242
  br label %255

250:                                              ; preds = %45, %45
  %251 = load i32, ptr %13, align 4
  %252 = or i32 %251, 16
  store i32 %252, ptr %13, align 4
  br label %255

253:                                              ; preds = %45, %45
  store i32 -1073741760, ptr %13, align 4
  br label %255

254:                                              ; preds = %45
  unreachable

255:                                              ; preds = %253, %250, %249, %224, %223, %210, %147
  %256 = load i32, ptr %13, align 4
  ret i32 %256
}