; Function Attrs: mustprogress nofree norecurse nosync nounwind willreturn memory(read, inaccessiblemem: none) uwtable
define internal fastcc i32 @binary_op_result_type(ptr nocapture noundef readonly %0, i8 noundef zeroext %1, i32 noundef %2, i32 noundef %3, i32 noundef %4, i64 noundef %5) unnamed_addr #13 {
  %7 = and i32 %2, 1022
  %8 = shl i32 %2, 1
  %9 = and i32 %8, 2
  %10 = or i32 %9, %7
  %11 = and i32 %3, 1022
  %12 = shl i32 %3, 1
  %13 = and i32 %12, 2
  %14 = or i32 %13, %11
  %15 = and i64 %5, 65536
  %.not = icmp eq i64 %15, 0
  %16 = or i32 %3, %2
  %17 = and i32 %16, 256
  %or.cond94 = icmp eq i32 %17, 0
  %spec.select = select i1 %or.cond94, i32 0, i32 1073742084
  %.0 = select i1 %.not, i32 %spec.select, i32 0
  switch i8 %1, label %113 [
    i8 1, label %18
    i8 2, label %63
    i8 3, label %63
    i8 4, label %95
    i8 12, label %95
    i8 5, label %102
    i8 9, label %104
    i8 10, label %104
    i8 11, label %104
    i8 6, label %111
    i8 7, label %111
    i8 8, label %114
    i8 53, label %114
  ]

18:                                               ; preds = %6
  %19 = icmp eq i32 %10, 16
  %20 = icmp eq i32 %14, 16
  %or.cond = and i1 %19, %20
  br i1 %or.cond, label %21, label %43

21:                                               ; preds = %18
  %22 = icmp slt i32 %4, 0
  br i1 %22, label %39, label %23

23:                                               ; preds = %21
  %24 = getelementptr inbounds i8, ptr %0, i64 72
  %25 = load ptr, ptr %24, align 8
  %26 = zext nneg i32 %4 to i64
  %27 = getelementptr inbounds %struct._zend_ssa_var_info, ptr %25, i64 %26
  %28 = getelementptr inbounds i8, ptr %27, i64 4
  %29 = load i8, ptr %28, align 4
  %30 = and i8 %29, 1
  %.not91 = icmp eq i8 %30, 0
  br i1 %.not91, label %39, label %31

31:                                               ; preds = %23
  %32 = getelementptr inbounds i8, ptr %27, i64 24
  %33 = load i8, ptr %32, align 8
  %34 = and i8 %33, 1
  %.not92 = icmp eq i8 %34, 0
  br i1 %.not92, label %35, label %39

35:                                               ; preds = %31
  %36 = getelementptr inbounds i8, ptr %27, i64 25
  %37 = load i8, ptr %36, align 1
  %38 = and i8 %37, 1
  %.not93 = icmp eq i8 %38, 0
  br i1 %.not93, label %41, label %39

39:                                               ; preds = %35, %31, %23, %21
  %40 = or disjoint i32 %.0, 48
  br label %114

41:                                               ; preds = %35
  %42 = or disjoint i32 %.0, 16
  br label %114

43:                                               ; preds = %18
  %44 = icmp eq i32 %10, 32
  %45 = icmp eq i32 %14, 32
  %or.cond3 = or i1 %44, %45
  br i1 %or.cond3, label %46, label %48

46:                                               ; preds = %43
  %47 = or disjoint i32 %.0, 32
  br label %114

48:                                               ; preds = %43
  %49 = icmp eq i32 %10, 128
  %50 = icmp eq i32 %14, 128
  %or.cond5 = and i1 %49, %50
  br i1 %or.cond5, label %51, label %55

51:                                               ; preds = %48
  %52 = and i32 %16, 553646080
  %53 = or disjoint i32 %52, %.0
  %54 = or i32 %53, 1073741952
  br label %114

55:                                               ; preds = %48
  %56 = or disjoint i32 %.0, 48
  %57 = and i32 %3, %2
  %58 = and i32 %57, 128
  %or.cond95.not.not = icmp eq i32 %58, 0
  br i1 %or.cond95.not.not, label %114, label %59

59:                                               ; preds = %55
  %60 = and i32 %16, 553646080
  %61 = or disjoint i32 %60, %.0
  %62 = or i32 %61, 1073742000
  br label %114

63:                                               ; preds = %6, %6
  %64 = icmp eq i32 %10, 16
  %65 = icmp eq i32 %14, 16
  %or.cond7 = and i1 %64, %65
  br i1 %or.cond7, label %66, label %88

66:                                               ; preds = %63
  %67 = icmp slt i32 %4, 0
  br i1 %67, label %84, label %68

68:                                               ; preds = %66
  %69 = getelementptr inbounds i8, ptr %0, i64 72
  %70 = load ptr, ptr %69, align 8
  %71 = zext nneg i32 %4 to i64
  %72 = getelementptr inbounds %struct._zend_ssa_var_info, ptr %70, i64 %71
  %73 = getelementptr inbounds i8, ptr %72, i64 4
  %74 = load i8, ptr %73, align 4
  %75 = and i8 %74, 1
  %.not86 = icmp eq i8 %75, 0
  br i1 %.not86, label %84, label %76

76:                                               ; preds = %68
  %77 = getelementptr inbounds i8, ptr %72, i64 24
  %78 = load i8, ptr %77, align 8
  %79 = and i8 %78, 1
  %.not87 = icmp eq i8 %79, 0
  br i1 %.not87, label %80, label %84

80:                                               ; preds = %76
  %81 = getelementptr inbounds i8, ptr %72, i64 25
  %82 = load i8, ptr %81, align 1
  %83 = and i8 %82, 1
  %.not88 = icmp eq i8 %83, 0
  br i1 %.not88, label %86, label %84

84:                                               ; preds = %80, %76, %68, %66
  %85 = or disjoint i32 %.0, 48
  br label %114

86:                                               ; preds = %80
  %87 = or disjoint i32 %.0, 16
  br label %114

88:                                               ; preds = %63
  %89 = icmp eq i32 %10, 32
  %90 = icmp eq i32 %14, 32
  %or.cond9 = or i1 %89, %90
  br i1 %or.cond9, label %91, label %93

91:                                               ; preds = %88
  %92 = or disjoint i32 %.0, 32
  br label %114

93:                                               ; preds = %88
  %94 = or disjoint i32 %.0, 48
  br label %114

95:                                               ; preds = %6, %6
  %96 = icmp eq i32 %10, 32
  %97 = icmp eq i32 %14, 32
  %or.cond11 = or i1 %96, %97
  br i1 %or.cond11, label %98, label %100

98:                                               ; preds = %95
  %99 = or disjoint i32 %.0, 32
  br label %114

100:                                              ; preds = %95
  %101 = or disjoint i32 %.0, 48
  br label %114

102:                                              ; preds = %6
  %103 = or disjoint i32 %.0, 16
  br label %114

104:                                              ; preds = %6, %6, %6
  %105 = and i32 %3, %2
  %106 = and i32 %105, 64
  %or.cond96.not.not = icmp eq i32 %106, 0
  %107 = or i32 %.0, -1073741760
  %.1 = select i1 %or.cond96.not.not, i32 %.0, i32 %107
  %108 = or i32 %14, %10
  %109 = and i32 %108, 958
  %or.cond97 = icmp eq i32 %109, 0
  %110 = or disjoint i32 %.1, 16
  %spec.select98 = select i1 %or.cond97, i32 %.1, i32 %110
  br label %114

111:                                              ; preds = %6, %6
  %112 = or disjoint i32 %.0, 16
  br label %114

113:                                              ; preds = %6
  unreachable

114:                                              ; preds = %104, %6, %6, %98, %100, %86, %84, %93, %91, %41, %39, %51, %59, %55, %46, %111, %102
  %.2 = phi i32 [ %112, %111 ], [ %103, %102 ], [ %99, %98 ], [ %101, %100 ], [ %85, %84 ], [ %87, %86 ], [ %92, %91 ], [ %94, %93 ], [ %40, %39 ], [ %42, %41 ], [ %47, %46 ], [ %54, %51 ], [ %62, %59 ], [ %56, %55 ], [ -1073741760, %6 ], [ -1073741760, %6 ], [ %spec.select98, %104 ]
  ret i32 %.2
}